target datalayout = "e-m:e-p270:32:32-p271:32:32-p272:64:64-i64:64-i128:128-f80:128-n8:16:32:64-S128"
target triple = "x86_64-pc-linux-gnu"

%struct._asn1_ctx_t = type { i32, i32, i8, ptr, ptr, ptr, ptr, ptr, %struct.anon.0, %struct.anon.3, %struct.anon.4, ptr }
%struct.anon.0 = type { i32, i8, i8, i8, ptr, ptr, i32, i32, ptr, ptr, ptr, %union.anon }
%union.anon = type { %struct.anon.1 }
%struct.anon.1 = type { ptr }
%struct.anon.3 = type { ptr, ptr, ptr }
%struct.anon.4 = type { i32, i8, ptr, i32, i32, ptr, ptr, ptr, %union.anon.5 }
%union.anon.5 = type { %struct.anon.6 }
%struct.anon.6 = type { ptr }
%struct._asn1_stack_frame_t = type { ptr, ptr, ptr }
%struct._asn1_par_t = type { ptr, i32, %union.anon.8, ptr }
%union.anon.8 = type { ptr }

; Function Attrs: nounwind null_pointer_is_valid sspstrong uwtable
define hidden zeroext i1 @get_size_constraint_from_stack(ptr noundef %0, ptr noundef %1, ptr noundef %2, ptr noundef %3, ptr noundef %4) #7 {
  %6 = alloca i1, align 1
  %7 = alloca ptr, align 8
  %8 = alloca ptr, align 8
  %9 = alloca ptr, align 8
  %10 = alloca ptr, align 8
  %11 = alloca ptr, align 8
  %12 = alloca ptr, align 8
  %13 = alloca i32, align 4
  store ptr %0, ptr %7, align 8
  store ptr %1, ptr %8, align 8
  store ptr %2, ptr %9, align 8
  store ptr %3, ptr %10, align 8
  store ptr %4, ptr %11, align 8
  call void @llvm.lifetime.start.p0(i64 8, ptr %12) #11
  %14 = load ptr, ptr %9, align 8
  %15 = icmp ne ptr %14, null
  br i1 %15, label %16, label %18

16:                                               ; preds = %5
  %17 = load ptr, ptr %9, align 8
  store i32 -1, ptr %17, align 4
  br label %18

18:                                               ; preds = %16, %5
  %19 = load ptr, ptr %10, align 8
  %20 = icmp ne ptr %19, null
  br i1 %20, label %21, label %23

21:                                               ; preds = %18
  %22 = load ptr, ptr %10, align 8
  store i32 -1, ptr %22, align 4
  br label %23

23:                                               ; preds = %21, %18
  %24 = load ptr, ptr %11, align 8
  %25 = icmp ne ptr %24, null
  br i1 %25, label %26, label %28

26:                                               ; preds = %23
  %27 = load ptr, ptr %11, align 8
  store i8 0, ptr %27, align 1
  br label %28

28:                                               ; preds = %26, %23
  %29 = load ptr, ptr %7, align 8
  %30 = getelementptr inbounds nuw %struct._asn1_ctx_t, ptr %29, i32 0, i32 5
  %31 = load ptr, ptr %30, align 8
  %32 = icmp ne ptr %31, null
  br i1 %32, label %34, label %33

33:                                               ; preds = %28
  store i1 false, ptr %6, align 1
  store i32 1, ptr %13, align 4
  br label %109

34:                                               ; preds = %28
  %35 = load ptr, ptr %7, align 8
  %36 = getelementptr inbounds nuw %struct._asn1_ctx_t, ptr %35, i32 0, i32 5
  %37 = load ptr, ptr %36, align 8
  %38 = getelementptr inbounds nuw %struct._asn1_stack_frame_t, ptr %37, i32 0, i32 0
  %39 = load ptr, ptr %38, align 8
  %40 = load ptr, ptr %8, align 8
  %41 = call i32 @strcmp(ptr noundef %39, ptr noundef %40) #14
  %42 = icmp ne i32 %41, 0
  br i1 %42, label %43, label %44

43:                                               ; preds = %34
  store i1 false, ptr %6, align 1
  store i32 1, ptr %13, align 4
  br label %109

44:                                               ; preds = %34
  %45 = load ptr, ptr %7, align 8
  %46 = getelementptr inbounds nuw %struct._asn1_ctx_t, ptr %45, i32 0, i32 5
  %47 = load ptr, ptr %46, align 8
  %48 = getelementptr inbounds nuw %struct._asn1_stack_frame_t, ptr %47, i32 0, i32 1
  %49 = load ptr, ptr %48, align 8
  store ptr %49, ptr %12, align 8
  %50 = load ptr, ptr %12, align 8
  %51 = icmp ne ptr %50, null
  br i1 %51, label %52, label %57

52:                                               ; preds = %44
  %53 = load ptr, ptr %12, align 8
  %54 = getelementptr inbounds nuw %struct._asn1_par_t, ptr %53, i32 0, i32 1
  %55 = load i32, ptr %54, align 8
  %56 = icmp ne i32 %55, 2
  br i1 %56, label %57, label %58

57:                                               ; preds = %52, %44
  store i1 false, ptr %6, align 1
  store i32 1, ptr %13, align 4
  br label %109

58:                                               ; preds = %52
  %59 = load ptr, ptr %9, align 8
  %60 = icmp ne ptr %59, null
  br i1 %60, label %61, label %66

61:                                               ; preds = %58
  %62 = load ptr, ptr %12, align 8
  %63 = getelementptr inbounds nuw %struct._asn1_par_t, ptr %62, i32 0, i32 2
  %64 = load i32, ptr %63, align 8
  %65 = load ptr, ptr %9, align 8
  store i32 %64, ptr %65, align 4
  br label %66

66:                                               ; preds = %61, %58
  %67 = load ptr, ptr %12, align 8
  %68 = getelementptr inbounds nuw %struct._asn1_par_t, ptr %67, i32 0, i32 3
  %69 = load ptr, ptr %68, align 8
  store ptr %69, ptr %12, align 8
  %70 = load ptr, ptr %12, align 8
  %71 = icmp ne ptr %70, null
  br i1 %71, label %72, label %77

72:                                               ; preds = %66
  %73 = load ptr, ptr %12, align 8
  %74 = getelementptr inbounds nuw %struct._asn1_par_t, ptr %73, i32 0, i32 1
  %75 = load i32, ptr %74, align 8
  %76 = icmp ne i32 %75, 2
  br i1 %76, label %77, label %78

77:                                               ; preds = %72, %66
  store i1 false, ptr %6, align 1
  store i32 1, ptr %13, align 4
  br label %109

78:                                               ; preds = %72
  %79 = load ptr, ptr %10, align 8
  %80 = icmp ne ptr %79, null
  br i1 %80, label %81, label %86

81:                                               ; preds = %78
  %82 = load ptr, ptr %12, align 8
  %83 = getelementptr inbounds nuw %struct._asn1_par_t, ptr %82, i32 0, i32 2
  %84 = load i32, ptr %83, align 8
  %85 = load ptr, ptr %10, align 8
  store i32 %84, ptr %85, align 4
  br label %86

86:                                               ; preds = %81, %78
  %87 = load ptr, ptr %12, align 8
  %88 = getelementptr inbounds nuw %struct._asn1_par_t, ptr %87, i32 0, i32 3
  %89 = load ptr, ptr %88, align 8
  store ptr %89, ptr %12, align 8
  %90 = load ptr, ptr %12, align 8
  %91 = icmp ne ptr %90, null
  br i1 %91, label %92, label %97

92:                                               ; preds = %86
  %93 = load ptr, ptr %12, align 8
  %94 = getelementptr inbounds nuw %struct._asn1_par_t, ptr %93, i32 0, i32 1
  %95 = load i32, ptr %94, align 8
  %96 = icmp ne i32 %95, 1
  br i1 %96, label %97, label %98

97:                                               ; preds = %92, %86
  store i1 false, ptr %6, align 1
  store i32 1, ptr %13, align 4
  br label %109

98:                                               ; preds = %92
  %99 = load ptr, ptr %11, align 8
  %100 = icmp ne ptr %99, null
  br i1 %100, label %101, label %108

101:                                              ; preds = %98
  %102 = load ptr, ptr %12, align 8
  %103 = getelementptr inbounds nuw %struct._asn1_par_t, ptr %102, i32 0, i32 2
  %104 = load i8, ptr %103, align 8, !range !6, !noundef !7
  %105 = trunc i8 %104 to i1
  %106 = load ptr, ptr %11, align 8
  %107 = zext i1 %105 to i8
  store i8 %107, ptr %106, align 1
  br label %108

108:                                              ; preds = %101, %98
  store i1 true, ptr %6, align 1
  store i32 1, ptr %13, align 4
  br label %109

109:                                              ; preds = %108, %97, %77, %57, %43, %33
  call void @llvm.lifetime.end.p0(i64 8, ptr %12) #11
  %110 = load i1, ptr %6, align 1
  ret i1 %110
}