; Function Attrs: mustprogress nofree nounwind null_pointer_is_valid sspstrong willreturn memory(read, argmem: readwrite, inaccessiblemem: none) uwtable
define hidden zeroext i1 @get_size_constraint_from_stack(ptr noundef readonly captures(none) %0, ptr noundef readonly captures(none) %1, ptr noundef writeonly captures(address_is_null) %2, ptr noundef writeonly captures(address_is_null) %3, ptr noundef writeonly captures(address_is_null) %4) local_unnamed_addr #7 {
  %.not = icmp eq ptr %2, null
  br i1 %.not, label %7, label %6

6:                                                ; preds = %5
  store i32 -1, ptr %2, align 4
  br label %7

7:                                                ; preds = %6, %5
  %.not37 = icmp eq ptr %3, null
  br i1 %.not37, label %9, label %8

8:                                                ; preds = %7
  store i32 -1, ptr %3, align 4
  br label %9

9:                                                ; preds = %8, %7
  %.not38 = icmp eq ptr %4, null
  br i1 %.not38, label %11, label %10

10:                                               ; preds = %9
  store i8 0, ptr %4, align 1
  br label %11

11:                                               ; preds = %10, %9
  %12 = getelementptr inbounds nuw i8, ptr %0, i64 32
  %13 = load ptr, ptr %12, align 8
  %.not39 = icmp eq ptr %13, null
  br i1 %.not39, label %46, label %14

14:                                               ; preds = %11
  %15 = load ptr, ptr %13, align 8
  %16 = tail call i32 @strcmp(ptr noundef %15, ptr noundef %1) #15
  %.not40 = icmp eq i32 %16, 0
  br i1 %.not40, label %17, label %46

17:                                               ; preds = %14
  %18 = getelementptr inbounds nuw i8, ptr %13, i64 8
  %19 = load ptr, ptr %18, align 8
  %.not41 = icmp eq ptr %19, null
  br i1 %.not41, label %46, label %20

20:                                               ; preds = %17
  %21 = getelementptr inbounds nuw i8, ptr %19, i64 8
  %22 = load i32, ptr %21, align 8
  %.not42 = icmp eq i32 %22, 2
  br i1 %.not42, label %23, label %46

23:                                               ; preds = %20
  br i1 %.not, label %27, label %24

24:                                               ; preds = %23
  %25 = getelementptr inbounds nuw i8, ptr %19, i64 16
  %26 = load i32, ptr %25, align 8
  store i32 %26, ptr %2, align 4
  br label %27

27:                                               ; preds = %24, %23
  %28 = getelementptr inbounds nuw i8, ptr %19, i64 24
  %29 = load ptr, ptr %28, align 8
  %.not43 = icmp eq ptr %29, null
  br i1 %.not43, label %46, label %30

30:                                               ; preds = %27
  %31 = getelementptr inbounds nuw i8, ptr %29, i64 8
  %32 = load i32, ptr %31, align 8
  %.not44 = icmp eq i32 %32, 2
  br i1 %.not44, label %33, label %46

33:                                               ; preds = %30
  br i1 %.not37, label %37, label %34

34:                                               ; preds = %33
  %35 = getelementptr inbounds nuw i8, ptr %29, i64 16
  %36 = load i32, ptr %35, align 8
  store i32 %36, ptr %3, align 4
  br label %37

37:                                               ; preds = %34, %33
  %38 = getelementptr inbounds nuw i8, ptr %29, i64 24
  %39 = load ptr, ptr %38, align 8
  %.not45 = icmp eq ptr %39, null
  br i1 %.not45, label %46, label %40

40:                                               ; preds = %37
  %41 = getelementptr inbounds nuw i8, ptr %39, i64 8
  %42 = load i32, ptr %41, align 8
  %.not46 = icmp ne i32 %42, 1
  %brmerge = or i1 %.not38, %.not46
  %not..not46 = xor i1 %.not46, true
  br i1 %brmerge, label %46, label %43

43:                                               ; preds = %40
  %44 = getelementptr inbounds nuw i8, ptr %39, i64 16
  %45 = load i8, ptr %44, align 8, !range !6, !noundef !7
  store i8 %45, ptr %4, align 1
  br label %46

46:                                               ; preds = %40, %43, %37, %27, %30, %17, %20, %14, %11
  %.0 = phi i1 [ false, %11 ], [ false, %14 ], [ false, %20 ], [ false, %17 ], [ false, %30 ], [ false, %27 ], [ %not..not46, %40 ], [ false, %37 ], [ true, %43 ]
  ret i1 %.0
}